target datalayout = "e-m:e-p270:32:32-p271:32:32-p272:64:64-i64:64-i128:128-f80:128-n8:16:32:64-S128"
target triple = "x86_64-pc-linux-gnu"

%struct.ARKodeMemRec = type { ptr, double, ptr, i32, i32, double, double, ptr, i32, double, ptr, i32, i32, ptr, ptr, i32, ptr, ptr, i32, ptr, ptr, ptr, ptr, ptr, ptr, ptr, ptr, ptr, ptr, ptr, ptr, ptr, ptr, ptr, i32, ptr, ptr, i32, ptr, i32, ptr, ptr, ptr, ptr, ptr, ptr, ptr, ptr, ptr, ptr, ptr, ptr, ptr, ptr, ptr, ptr, ptr, ptr, ptr, ptr, ptr, ptr, ptr, ptr, ptr, ptr, i32, ptr, ptr, ptr, ptr, ptr, ptr, ptr, i32, ptr, ptr, ptr, i32, ptr, ptr, ptr, ptr, ptr, ptr, ptr, i32, i32, i32, i32, double, double, double, double, double, double, double, double, double, double, i32, ptr, i64, i32, i32, i32, i32, i64, i64, i32, i64, i64, i64, i64, i64, i64, i64, double, double, double, double, double, i32, double, double, i32, i32, i32, i32, i32, i32, i32, i32, ptr, i32, ptr, ptr, ptr, ptr, i32, i32, i32 }
%struct._generic_N_Vector = type { ptr, ptr, ptr }
%struct._generic_N_Vector_Ops = type { ptr, ptr, ptr, ptr, ptr, ptr, ptr, ptr, ptr, ptr, ptr, ptr, ptr, ptr, ptr, ptr, ptr, ptr, ptr, ptr, ptr, ptr, ptr, ptr, ptr, ptr, ptr, ptr, ptr, ptr, ptr, ptr, ptr, ptr, ptr, ptr, ptr, ptr, ptr, ptr, ptr, ptr, ptr, ptr, ptr, ptr, ptr, ptr, ptr, ptr, ptr, ptr, ptr, ptr, ptr, ptr }
%struct.ARKBandPrecDataRec = type { i64, i64, i64, ptr, ptr, ptr, ptr, ptr, i64, ptr }
%struct.ARKLsMemRec = type { i32, i32, i32, ptr, ptr, i32, i32, double, double, ptr, ptr, ptr, ptr, ptr, ptr, ptr, i64, double, i64, i64, i64, i64, i64, i64, i64, i64, i64, double, ptr, ptr, ptr, ptr, i32, ptr, ptr, ptr, ptr, i32, ptr, ptr, i32 }
%struct._generic_SUNMatrix = type { ptr, ptr, ptr }
%struct._generic_SUNMatrix_Ops = type { ptr, ptr, ptr, ptr, ptr, ptr, ptr, ptr, ptr, ptr }
%struct._generic_SUNLinearSolver = type { ptr, ptr, ptr }
%struct._generic_SUNLinearSolver_Ops = type { ptr, ptr, ptr, ptr, ptr, ptr, ptr, ptr, ptr, ptr, ptr, ptr, ptr, ptr, ptr }

@.str = private unnamed_addr constant [123 x i8] c"generated/home/dtcxzyw/WorkSpace/Projects/compilers/llvm-opt-benchmark/bench/sundials/sundials/src/arkode/arkode_bandpre.c\00", align 1
@__func__.ARKBandPrecGetWorkSpace = private unnamed_addr constant [24 x i8] c"ARKBandPrecGetWorkSpace\00", align 1
@.str.4 = private unnamed_addr constant [68 x i8] c"Band preconditioner memory is NULL. ARKBandPrecInit must be called.\00", align 1

; Function Attrs: nounwind uwtable
define i32 @ARKBandPrecGetWorkSpace(ptr noundef %0, ptr noundef %1, ptr noundef %2) #0 {
  %4 = alloca i32, align 4
  %5 = alloca ptr, align 8
  %6 = alloca ptr, align 8
  %7 = alloca ptr, align 8
  %8 = alloca ptr, align 8
  %9 = alloca ptr, align 8
  %10 = alloca ptr, align 8
  %11 = alloca i64, align 8
  %12 = alloca i64, align 8
  %13 = alloca i64, align 8
  %14 = alloca i64, align 8
  %15 = alloca i32, align 4
  %16 = alloca i32, align 4
  store ptr %0, ptr %5, align 8, !tbaa !3
  store ptr %1, ptr %6, align 8, !tbaa !53
  store ptr %2, ptr %7, align 8, !tbaa !53
  call void @llvm.lifetime.start.p0(i64 8, ptr %8) #6
  call void @llvm.lifetime.start.p0(i64 8, ptr %9) #6
  call void @llvm.lifetime.start.p0(i64 8, ptr %10) #6
  call void @llvm.lifetime.start.p0(i64 8, ptr %11) #6
  call void @llvm.lifetime.start.p0(i64 8, ptr %12) #6
  call void @llvm.lifetime.start.p0(i64 8, ptr %13) #6
  call void @llvm.lifetime.start.p0(i64 8, ptr %14) #6
  call void @llvm.lifetime.start.p0(i64 4, ptr %15) #6
  %17 = load ptr, ptr %5, align 8, !tbaa !3
  %18 = call i32 @arkLs_AccessARKODELMem(ptr noundef %17, ptr noundef @__func__.ARKBandPrecGetWorkSpace, ptr noundef %8, ptr noundef %9)
  store i32 %18, ptr %15, align 4, !tbaa !9
  %19 = load i32, ptr %15, align 4, !tbaa !9
  %20 = icmp ne i32 %19, 0
  br i1 %20, label %21, label %23

21:                                               ; preds = %3
  %22 = load i32, ptr %15, align 4, !tbaa !9
  store i32 %22, ptr %4, align 4
  store i32 1, ptr %16, align 4
  br label %137

23:                                               ; preds = %3
  %24 = load ptr, ptr %9, align 8, !tbaa !43
  %25 = getelementptr inbounds nuw %struct.ARKLsMemRec, ptr %24, i32 0, i32 31
  %26 = load ptr, ptr %25, align 8, !tbaa !47
  %27 = icmp eq ptr %26, null
  br i1 %27, label %28, label %30

28:                                               ; preds = %23
  %29 = load ptr, ptr %8, align 8, !tbaa !11
  call void (ptr, i32, i32, ptr, ptr, ptr, ...) @arkProcessError(ptr noundef %29, i32 noundef -5, i32 noundef 211, ptr noundef @__func__.ARKBandPrecGetWorkSpace, ptr noundef @.str, ptr noundef @.str.4)
  store i32 -5, ptr %4, align 4
  store i32 1, ptr %16, align 4
  br label %137

30:                                               ; preds = %23
  %31 = load ptr, ptr %9, align 8, !tbaa !43
  %32 = getelementptr inbounds nuw %struct.ARKLsMemRec, ptr %31, i32 0, i32 31
  %33 = load ptr, ptr %32, align 8, !tbaa !47
  store ptr %33, ptr %10, align 8, !tbaa !27
  %34 = load ptr, ptr %7, align 8, !tbaa !53
  store i64 4, ptr %34, align 8, !tbaa !7
  %35 = load ptr, ptr %6, align 8, !tbaa !53
  store i64 0, ptr %35, align 8, !tbaa !7
  %36 = load ptr, ptr %8, align 8, !tbaa !11
  %37 = getelementptr inbounds nuw %struct.ARKodeMemRec, ptr %36, i32 0, i32 79
  %38 = load ptr, ptr %37, align 8, !tbaa !13
  %39 = getelementptr inbounds nuw %struct._generic_N_Vector, ptr %38, i32 0, i32 1
  %40 = load ptr, ptr %39, align 8, !tbaa !22
  %41 = getelementptr inbounds nuw %struct._generic_N_Vector_Ops, ptr %40, i32 0, i32 4
  %42 = load ptr, ptr %41, align 8, !tbaa !55
  %43 = icmp ne ptr %42, null
  br i1 %43, label %44, label %58

44:                                               ; preds = %30
  %45 = load ptr, ptr %8, align 8, !tbaa !11
  %46 = getelementptr inbounds nuw %struct.ARKodeMemRec, ptr %45, i32 0, i32 79
  %47 = load ptr, ptr %46, align 8, !tbaa !13
  call void @N_VSpace(ptr noundef %47, ptr noundef %11, ptr noundef %12)
  %48 = load i64, ptr %12, align 8, !tbaa !7
  %49 = mul nsw i64 2, %48
  %50 = load ptr, ptr %7, align 8, !tbaa !53
  %51 = load i64, ptr %50, align 8, !tbaa !7
  %52 = add nsw i64 %51, %49
  store i64 %52, ptr %50, align 8, !tbaa !7
  %53 = load i64, ptr %11, align 8, !tbaa !7
  %54 = mul nsw i64 2, %53
  %55 = load ptr, ptr %6, align 8, !tbaa !53
  %56 = load i64, ptr %55, align 8, !tbaa !7
  %57 = add nsw i64 %56, %54
  store i64 %57, ptr %55, align 8, !tbaa !7
  br label %58

58:                                               ; preds = %44, %30
  %59 = load ptr, ptr %10, align 8, !tbaa !27
  %60 = getelementptr inbounds nuw %struct.ARKBandPrecDataRec, ptr %59, i32 0, i32 3
  %61 = load ptr, ptr %60, align 8, !tbaa !37
  %62 = getelementptr inbounds nuw %struct._generic_SUNMatrix, ptr %61, i32 0, i32 1
  %63 = load ptr, ptr %62, align 8, !tbaa !56
  %64 = getelementptr inbounds nuw %struct._generic_SUNMatrix_Ops, ptr %63, i32 0, i32 9
  %65 = load ptr, ptr %64, align 8, !tbaa !59
  %66 = icmp ne ptr %65, null
  br i1 %66, label %67, label %84

67:                                               ; preds = %58
  %68 = load ptr, ptr %10, align 8, !tbaa !27
  %69 = getelementptr inbounds nuw %struct.ARKBandPrecDataRec, ptr %68, i32 0, i32 3
  %70 = load ptr, ptr %69, align 8, !tbaa !37
  %71 = call i32 @SUNMatSpace(ptr noundef %70, ptr noundef %13, ptr noundef %14)
  store i32 %71, ptr %15, align 4, !tbaa !9
  %72 = load i32, ptr %15, align 4, !tbaa !9
  %73 = icmp eq i32 %72, 0
  br i1 %73, label %74, label %83

74:                                               ; preds = %67
  %75 = load i64, ptr %14, align 8, !tbaa !7
  %76 = load ptr, ptr %7, align 8, !tbaa !53
  %77 = load i64, ptr %76, align 8, !tbaa !7
  %78 = add nsw i64 %77, %75
  store i64 %78, ptr %76, align 8, !tbaa !7
  %79 = load i64, ptr %13, align 8, !tbaa !7
  %80 = load ptr, ptr %6, align 8, !tbaa !53
  %81 = load i64, ptr %80, align 8, !tbaa !7
  %82 = add nsw i64 %81, %79
  store i64 %82, ptr %80, align 8, !tbaa !7
  br label %83

83:                                               ; preds = %74, %67
  br label %84

84:                                               ; preds = %83, %58
  %85 = load ptr, ptr %10, align 8, !tbaa !27
  %86 = getelementptr inbounds nuw %struct.ARKBandPrecDataRec, ptr %85, i32 0, i32 4
  %87 = load ptr, ptr %86, align 8, !tbaa !39
  %88 = getelementptr inbounds nuw %struct._generic_SUNMatrix, ptr %87, i32 0, i32 1
  %89 = load ptr, ptr %88, align 8, !tbaa !56
  %90 = getelementptr inbounds nuw %struct._generic_SUNMatrix_Ops, ptr %89, i32 0, i32 9
  %91 = load ptr, ptr %90, align 8, !tbaa !59
  %92 = icmp ne ptr %91, null
  br i1 %92, label %93, label %110

93:                                               ; preds = %84
  %94 = load ptr, ptr %10, align 8, !tbaa !27
  %95 = getelementptr inbounds nuw %struct.ARKBandPrecDataRec, ptr %94, i32 0, i32 4
  %96 = load ptr, ptr %95, align 8, !tbaa !39
  %97 = call i32 @SUNMatSpace(ptr noundef %96, ptr noundef %13, ptr noundef %14)
  store i32 %97, ptr %15, align 4, !tbaa !9
  %98 = load i32, ptr %15, align 4, !tbaa !9
  %99 = icmp eq i32 %98, 0
  br i1 %99, label %100, label %109

100:                                              ; preds = %93
  %101 = load i64, ptr %14, align 8, !tbaa !7
  %102 = load ptr, ptr %7, align 8, !tbaa !53
  %103 = load i64, ptr %102, align 8, !tbaa !7
  %104 = add nsw i64 %103, %101
  store i64 %104, ptr %102, align 8, !tbaa !7
  %105 = load i64, ptr %13, align 8, !tbaa !7
  %106 = load ptr, ptr %6, align 8, !tbaa !53
  %107 = load i64, ptr %106, align 8, !tbaa !7
  %108 = add nsw i64 %107, %105
  store i64 %108, ptr %106, align 8, !tbaa !7
  br label %109

109:                                              ; preds = %100, %93
  br label %110

110:                                              ; preds = %109, %84
  %111 = load ptr, ptr %10, align 8, !tbaa !27
  %112 = getelementptr inbounds nuw %struct.ARKBandPrecDataRec, ptr %111, i32 0, i32 5
  %113 = load ptr, ptr %112, align 8, !tbaa !40
  %114 = getelementptr inbounds nuw %struct._generic_SUNLinearSolver, ptr %113, i32 0, i32 1
  %115 = load ptr, ptr %114, align 8, !tbaa !61
  %116 = getelementptr inbounds nuw %struct._generic_SUNLinearSolver_Ops, ptr %115, i32 0, i32 12
  %117 = load ptr, ptr %116, align 8, !tbaa !64
  %118 = icmp ne ptr %117, null
  br i1 %118, label %119, label %136

119:                                              ; preds = %110
  %120 = load ptr, ptr %10, align 8, !tbaa !27
  %121 = getelementptr inbounds nuw %struct.ARKBandPrecDataRec, ptr %120, i32 0, i32 5
  %122 = load ptr, ptr %121, align 8, !tbaa !40
  %123 = call i32 @SUNLinSolSpace(ptr noundef %122, ptr noundef %13, ptr noundef %14)
  store i32 %123, ptr %15, align 4, !tbaa !9
  %124 = load i32, ptr %15, align 4, !tbaa !9
  %125 = icmp eq i32 %124, 0
  br i1 %125, label %126, label %135

126:                                              ; preds = %119
  %127 = load i64, ptr %14, align 8, !tbaa !7
  %128 = load ptr, ptr %7, align 8, !tbaa !53
  %129 = load i64, ptr %128, align 8, !tbaa !7
  %130 = add nsw i64 %129, %127
  store i64 %130, ptr %128, align 8, !tbaa !7
  %131 = load i64, ptr %13, align 8, !tbaa !7
  %132 = load ptr, ptr %6, align 8, !tbaa !53
  %133 = load i64, ptr %132, align 8, !tbaa !7
  %134 = add nsw i64 %133, %131
  store i64 %134, ptr %132, align 8, !tbaa !7
  br label %135

135:                                              ; preds = %126, %119
  br label %136

136:                                              ; preds = %135, %110
  store i32 0, ptr %4, align 4
  store i32 1, ptr %16, align 4
  br label %137

137:                                              ; preds = %136, %28, %21
  call void @llvm.lifetime.end.p0(i64 4, ptr %15) #6
  call void @llvm.lifetime.end.p0(i64 8, ptr %14) #6
  call void @llvm.lifetime.end.p0(i64 8, ptr %13) #6
  call void @llvm.lifetime.end.p0(i64 8, ptr %12) #6
  call void @llvm.lifetime.end.p0(i64 8, ptr %11) #6
  call void @llvm.lifetime.end.p0(i64 8, ptr %10) #6
  call void @llvm.lifetime.end.p0(i64 8, ptr %9) #6
  call void @llvm.lifetime.end.p0(i64 8, ptr %8) #6
  %138 = load i32, ptr %4, align 4
  ret i32 %138
}