; Function Attrs: nounwind uwtable
define i32 @ARKBandPrecGetWorkSpace(ptr noundef %0, ptr noundef captures(none) %1, ptr noundef captures(none) %2) local_unnamed_addr #0 {
  %4 = alloca ptr, align 8
  %5 = alloca ptr, align 8
  %6 = alloca i64, align 8
  %7 = alloca i64, align 8
  %8 = alloca i64, align 8
  %9 = alloca i64, align 8
  call void @llvm.lifetime.start.p0(i64 8, ptr nonnull %4) #8
  call void @llvm.lifetime.start.p0(i64 8, ptr nonnull %5) #8
  call void @llvm.lifetime.start.p0(i64 8, ptr nonnull %6) #8
  call void @llvm.lifetime.start.p0(i64 8, ptr nonnull %7) #8
  call void @llvm.lifetime.start.p0(i64 8, ptr nonnull %8) #8
  call void @llvm.lifetime.start.p0(i64 8, ptr nonnull %9) #8
  %10 = call i32 @arkLs_AccessARKODELMem(ptr noundef %0, ptr noundef nonnull @__func__.ARKBandPrecGetWorkSpace, ptr noundef nonnull %4, ptr noundef nonnull %5) #8
  %.not = icmp eq i32 %10, 0
  br i1 %.not, label %11, label %86

11:                                               ; preds = %3
  %12 = load ptr, ptr %5, align 8, !tbaa !38
  %13 = getelementptr inbounds nuw i8, ptr %12, i64 232
  %14 = load ptr, ptr %13, align 8, !tbaa !42
  %15 = icmp eq ptr %14, null
  br i1 %15, label %16, label %18

16:                                               ; preds = %11
  %17 = load ptr, ptr %4, align 8, !tbaa !3
  call void (ptr, i32, i32, ptr, ptr, ptr, ...) @arkProcessError(ptr noundef %17, i32 noundef -5, i32 noundef 211, ptr noundef nonnull @__func__.ARKBandPrecGetWorkSpace, ptr noundef nonnull @.str, ptr noundef nonnull @.str.4) #8
  br label %86

18:                                               ; preds = %11
  store i64 4, ptr %2, align 8, !tbaa !54
  store i64 0, ptr %1, align 8, !tbaa !54
  %19 = load ptr, ptr %4, align 8, !tbaa !3
  %20 = getelementptr inbounds nuw i8, ptr %19, i64 616
  %21 = load ptr, ptr %20, align 8, !tbaa !8
  %22 = getelementptr inbounds nuw i8, ptr %21, i64 8
  %23 = load ptr, ptr %22, align 8, !tbaa !19
  %24 = getelementptr inbounds nuw i8, ptr %23, i64 32
  %25 = load ptr, ptr %24, align 8, !tbaa !55
  %.not24 = icmp eq ptr %25, null
  br i1 %.not24, label %35, label %26

26:                                               ; preds = %18
  call void @N_VSpace(ptr noundef nonnull %21, ptr noundef nonnull %6, ptr noundef nonnull %7) #8
  %27 = load i64, ptr %7, align 8, !tbaa !54
  %28 = shl nsw i64 %27, 1
  %29 = load i64, ptr %2, align 8, !tbaa !54
  %30 = add nsw i64 %29, %28
  store i64 %30, ptr %2, align 8, !tbaa !54
  %31 = load i64, ptr %6, align 8, !tbaa !54
  %32 = shl nsw i64 %31, 1
  %33 = load i64, ptr %1, align 8, !tbaa !54
  %34 = add nsw i64 %33, %32
  store i64 %34, ptr %1, align 8, !tbaa !54
  br label %35

35:                                               ; preds = %26, %18
  %36 = getelementptr inbounds nuw i8, ptr %14, i64 24
  %37 = load ptr, ptr %36, align 8, !tbaa !33
  %38 = getelementptr inbounds nuw i8, ptr %37, i64 8
  %39 = load ptr, ptr %38, align 8, !tbaa !56
  %40 = getelementptr inbounds nuw i8, ptr %39, i64 72
  %41 = load ptr, ptr %40, align 8, !tbaa !59
  %.not25 = icmp eq ptr %41, null
  br i1 %.not25, label %52, label %42

42:                                               ; preds = %35
  %43 = call i32 @SUNMatSpace(ptr noundef nonnull %37, ptr noundef nonnull %8, ptr noundef nonnull %9) #8
  %44 = icmp eq i32 %43, 0
  br i1 %44, label %45, label %52

45:                                               ; preds = %42
  %46 = load i64, ptr %9, align 8, !tbaa !54
  %47 = load i64, ptr %2, align 8, !tbaa !54
  %48 = add nsw i64 %47, %46
  store i64 %48, ptr %2, align 8, !tbaa !54
  %49 = load i64, ptr %8, align 8, !tbaa !54
  %50 = load i64, ptr %1, align 8, !tbaa !54
  %51 = add nsw i64 %50, %49
  store i64 %51, ptr %1, align 8, !tbaa !54
  br label %52

52:                                               ; preds = %42, %45, %35
  %53 = getelementptr inbounds nuw i8, ptr %14, i64 32
  %54 = load ptr, ptr %53, align 8, !tbaa !34
  %55 = getelementptr inbounds nuw i8, ptr %54, i64 8
  %56 = load ptr, ptr %55, align 8, !tbaa !56
  %57 = getelementptr inbounds nuw i8, ptr %56, i64 72
  %58 = load ptr, ptr %57, align 8, !tbaa !59
  %.not26 = icmp eq ptr %58, null
  br i1 %.not26, label %69, label %59

59:                                               ; preds = %52
  %60 = call i32 @SUNMatSpace(ptr noundef nonnull %54, ptr noundef nonnull %8, ptr noundef nonnull %9) #8
  %61 = icmp eq i32 %60, 0
  br i1 %61, label %62, label %69

62:                                               ; preds = %59
  %63 = load i64, ptr %9, align 8, !tbaa !54
  %64 = load i64, ptr %2, align 8, !tbaa !54
  %65 = add nsw i64 %64, %63
  store i64 %65, ptr %2, align 8, !tbaa !54
  %66 = load i64, ptr %8, align 8, !tbaa !54
  %67 = load i64, ptr %1, align 8, !tbaa !54
  %68 = add nsw i64 %67, %66
  store i64 %68, ptr %1, align 8, !tbaa !54
  br label %69

69:                                               ; preds = %59, %62, %52
  %70 = getelementptr inbounds nuw i8, ptr %14, i64 40
  %71 = load ptr, ptr %70, align 8, !tbaa !35
  %72 = getelementptr inbounds nuw i8, ptr %71, i64 8
  %73 = load ptr, ptr %72, align 8, !tbaa !61
  %74 = getelementptr inbounds nuw i8, ptr %73, i64 96
  %75 = load ptr, ptr %74, align 8, !tbaa !64
  %.not27 = icmp eq ptr %75, null
  br i1 %.not27, label %86, label %76

76:                                               ; preds = %69
  %77 = call i32 @SUNLinSolSpace(ptr noundef nonnull %71, ptr noundef nonnull %8, ptr noundef nonnull %9) #8
  %78 = icmp eq i32 %77, 0
  br i1 %78, label %79, label %86

79:                                               ; preds = %76
  %80 = load i64, ptr %9, align 8, !tbaa !54
  %81 = load i64, ptr %2, align 8, !tbaa !54
  %82 = add nsw i64 %81, %80
  store i64 %82, ptr %2, align 8, !tbaa !54
  %83 = load i64, ptr %8, align 8, !tbaa !54
  %84 = load i64, ptr %1, align 8, !tbaa !54
  %85 = add nsw i64 %84, %83
  store i64 %85, ptr %1, align 8, !tbaa !54
  br label %86

86:                                               ; preds = %69, %79, %76, %3, %16
  %.0 = phi i32 [ -5, %16 ], [ %10, %3 ], [ 0, %76 ], [ 0, %79 ], [ 0, %69 ]
  call void @llvm.lifetime.end.p0(i64 8, ptr nonnull %9) #8
  call void @llvm.lifetime.end.p0(i64 8, ptr nonnull %8) #8
  call void @llvm.lifetime.end.p0(i64 8, ptr nonnull %7) #8
  call void @llvm.lifetime.end.p0(i64 8, ptr nonnull %6) #8
  call void @llvm.lifetime.end.p0(i64 8, ptr nonnull %5) #8
  call void @llvm.lifetime.end.p0(i64 8, ptr nonnull %4) #8
  ret i32 %.0
}